MPASM 5.87                          MAIN.ASM   2-12-2023  18:41:06         PAGE  1


LOC  OBJECT CODE     LINE SOURCE TEXT
  VALUE

                      00001         PROCESSOR 16F877A
2007   3731           00002         __CONFIG 0x3731 ; Clock = XT 4MHz, standard fuse settings
                      00003         INCLUDE "P16F877A.INC"
                      00001         LIST
                      00002 ; P16F877A.INC  Standard Header File, Version 1.00    Microchip Technology, Inc.
                      00398         LIST
                      00004 
                      00005 
                      00006 ; ----------- Data Area -----------
                      00007 
  00000004            00008 LCD_RS_PIN      EQU 4           ; Register select output bit
  00000005            00009 LCD_E_PIN       EQU 5           ; Enable display input
                      00010 
                      00011 ;       Uses GPR 70 - 75 for LCD Data
  00000070            00012 Timer1  EQU 0x70                ; 1ms count register
  00000071            00013 TimerX  EQU 0x71                ; Xms count register
  00000072            00014 Var     EQU 0x72                ; Output variable
  00000073            00015 Point   EQU 0x73                ; Program table pointer
  00000075            00016 TEMP    EQU 0x75                ; Temp store
  00000076            00017 TEMP2   EQU 0x76                ; Temp2 store
                      00018 
                      00019 
  00000020            00020 counter EQU 0x20        ; Counter register
  00000021            00021 counterBlink    EQU 0x21; counter FOR Blinking register
                      00022 
  00000022            00023 LCD_CSR EQU 0x22; LCD_CSR register
  000000C0            00024 Location        EQU 0xC0; counter for LCD_CSR
  00000050            00025 blinkDelay      EQU 0x50; Delay time for cursor blink :can be adjusted as needed
                      00026 
  0000007C            00027 CSR_LOC         EQU D'124'      ; CSR_LOC: "  |  "
  00000020            00028 WHITE           EQU D'32'       ; WHITE space character
                      00029 
  00000041            00030 ACHAR           EQU     D'65'; A
  00000041            00031 ACHAR           EQU     D'65'; A
  00000023            00032 currentCharReg  EQU     0x23;
                      00033 
                      00034 
                      00035 ; ---------------------------------
                      00036 ; ----------- Code Area -----------
                      00037 ; ---------------------------------
                      00038 
                      00039     ORG 0x0000          ; Start of program memory
0000   0000           00040     NOP                 ; For ICD mode
0001   2???           00041     GOTO START_EXECUTION
                      00042 
Warning[205]: Found directive in column 1. (ORG)
                      00043 ORG     0x0004 ; ISR
                      00044 
0004   3027           00045         MOVLW   b'00100111'             ; least significant bits of TMR1
0005   008E           00046         MOVWF   TMR1L
0006   30FF           00047         MOVLW   b'11111111'             ; most significant bits of TMR1
0007   008F           00048         MOVWF   TMR1H
                      00049 
MPASM 5.87                          MAIN.ASM   2-12-2023  18:41:06         PAGE  2


LOC  OBJECT CODE     LINE SOURCE TEXT
  VALUE

                      00050         ; CLEAR OVERFLOW FLAG
0008   100C           00051         BCF     PIR1,TMR1IF     
                      00052 
0009   1C8B           00053         BTFSS   INTCON, INTF    ; based on INTCON INTF Bit
000A   2???           00054         GOTO    ISR_FOR_TIMER
000B   2???           00055         GOTO    ISR_FOR_BTN
                      00056 
000C                  00057 ISR_FOR_TIMER
                      00058 
                      00059 ; TODO increment_letter, check if Z, check if space
                      00060 
000C   100C           00061     BCF         PIR1,TMR1IF     ; clear the TMR1 ov flag 
000D   108B           00062         BCF             INTCON,INTF             ; clear the External Interrupt Flag bit
000E   0009           00063     RETFIE
                      00064 
                      00065 
000F                  00066 ISR_FOR_BTN
                      00067 
                      00068 ; TODO increment_letter, check if Z, check if space
                      00069 
                      00070     
                      00071 
000F   1587           00072         BSF PORTC,3
0010   1607           00073         BSF PORTC,4
                      00074 
                      00075 
0011   30AF           00076         MOVLW   0xAF ; set delay iterations
                      00077         
0012   2???           00078         CALL DELAY_W
0013   2???           00079         CALL DELAY_W
0014   2???           00080         CALL DELAY_W
                      00081 
0015   0187           00082         CLRF PORTC
                      00083 
                      00084         
0016   2???           00085         CALL DELAY_W
0017   2???           00086         CALL DELAY_W
0018   2???           00087         CALL DELAY_W
                      00088 
0019   1607           00089         BSF PORTC,4
001A   1687           00090         BSF PORTC,5
001B   1707           00091         BSF PORTC,6
001C   1787           00092         BSF PORTC,7
                      00093 
                      00094 
                      00095 
001D   100C           00096     BCF         PIR1,TMR1IF     ; clear the TMR1 ov flag 
001E   108B           00097         BCF             INTCON,INTF             ; clear the Interrupt flag 
001F   0009           00098     RETFIE
                      00099 
0020                  00100 SETUP_PORTS_DIGITAL
                      00101 
0020   1683 1303      00102         BANKSEL ADCON1
MPASM 5.87                          MAIN.ASM   2-12-2023  18:41:06         PAGE  3


LOC  OBJECT CODE     LINE SOURCE TEXT
  VALUE

0022   3006           00103         MOVLW   0x06            ; Disable A/D Conversion
Message[302]: Register in operand not in bank 0.  Ensure that bank bits are correct.
0023   009F           00104         MOVWF   ADCON1
                      00105 
0024   1683 1303      00106         BANKSEL CMCON 
0026   3007           00107         MOVLW   0x07            ; Disable Comparator
Message[302]: Register in operand not in bank 0.  Ensure that bank bits are correct.
0027   009C           00108         MOVWF   CMCON
                      00109 
0028   0008           00110         RETURN
                      00111 
                      00112 
0029                  00113 SETUP_INTERRUPTS
                      00114 
0029   1683 1303      00115         BANKSEL TRISB
                      00116 
Message[302]: Register in operand not in bank 0.  Ensure that bank bits are correct.
002B   1406           00117         BSF TRISB, 0x00 ; Set Port B Direction To Input
Message[302]: Register in operand not in bank 0.  Ensure that bank bits are correct.
002C   1701           00118         BSF OPTION_REG, INTEDG ; Rising Edge
002D   108B           00119         BCF INTCON,INTF ; Clear Interrupt Flag
002E   160B           00120         BSF INTCON,INTE ; Enable RB0 Interrupt Bit 
002F   178B           00121         BSF INTCON,GIE ; Enable Global Interrupt Bit  
                      00122 
0030   0008           00123         RETURN
                      00124 
                      00125 
0031                  00126 INIT_DEBUG_PORT
                      00127 
                      00128         ; port c is used for debugging
0031   1683 1303      00129         BANKSEL TRISC
0033   3000           00130         MOVLW   0x00            ; In order to set PORTC Direction to output
Message[302]: Register in operand not in bank 0.  Ensure that bank bits are correct.
0034   0087           00131         MOVWF   TRISC
                      00132 
0035   0008           00133         RETURN
                      00134 
                      00135 
                      00136 
0036                  00137 START_EXECUTION
                      00138 
0036   2???           00139         CALL INIT_DEBUG_PORT
0037   2???           00140         CALL SETUP_INTERRUPTS
0038   2???           00141         CALL SETUP_PORTS_DIGITAL
                      00142 
                      00143    
0039   3005           00144         MOVLW   0x5             ; Load initial value of 5 into W
003A   00A0           00145         MOVWF   counter         ; Store the value in the counter register
                      00146 
003B   30C0           00147         MOVLW   Location        ; Load initial value of Location into W
003C   00A2           00148         MOVWF   LCD_CSR ; Store the value in the LCD_CSR register
                      00149 
003D   3041           00150         MOVLW   ACHAR           ; Load initial value of char 'A' To W
MPASM 5.87                          MAIN.ASM   2-12-2023  18:41:06         PAGE  4


LOC  OBJECT CODE     LINE SOURCE TEXT
  VALUE

003E   00A3           00151         MOVWF   currentCharReg  ; Store the value in the currentCharReg register
                      00152 
003F   2???           00153         CALL    SETUP_LCD ; Initialise the display FOR LCD
0040   2???           00154         CALL    WritePromptToLCD
                      00155 
                      00156 
0041   2???           00157         CALL    LABEL_REACH ; announce reaching this line
                      00158 
                      00159 
                      00160 
                      00161 ; used to announce reaching a section of the code
0042                  00162 LABEL_REACH
                      00163 
0042   1283 1303      00164     BANKSEL PORTC
0044   0187           00165         CLRF PORTC
                      00166     
0045   3080           00167         MOVLW   0x80 ; set delay loop to 60 iterations
                      00168 
0046   1407           00169         BSF PORTC,0
0047   2???           00170         CALL DELAY_W
0048   1487           00171         BSF PORTC,1
0049   2???           00172         CALL DELAY_W
                      00173 
004A   30FF           00174         MOVLW   0xFF ; set delay loop to 255 iteration
004B   2???           00175         CALL DELAY_W
                      00176 
004C   1007           00177         BCF PORTC,0
004D   1087           00178         BCF PORTC,1
                      00179 
004E   2???           00180         CALL DELAY_W
                      00181 
004F   2???           00182         GOTO LABEL_REACH ; loop for ever
                      00183 
                      00184 ; 200 instructions delay
0050                  00185 DELAY_W 
0050   00F5           00186         MOVWF   TEMP
0051                  00187 loop_start
                      00188 
0051   0000           00189         NOP
0052   0000           00190         NOP
0053   0000           00191         NOP
0054   0000           00192         NOP
0055   0000           00193         NOP
0056   0000           00194         NOP
                      00195 
Message[305]: Using default destination of 1 (file).
0057   0BF5           00196         DECFSZ  TEMP
0058   2???           00197         GOTO    loop_start
0059   0008           00198         RETURN
                      00199 
                      00200 ;--------------------------------------------------------------Start LCD CODE---------------------------
                            -------
                      00201 ;       1ms delay with 1us instruction time (1000 cycles)
MPASM 5.87                          MAIN.ASM   2-12-2023  18:41:06         PAGE  5


LOC  OBJECT CODE     LINE SOURCE TEXT
  VALUE

                      00202 ;--------------------------------------------------------------
005A   30F9           00203 onems   MOVLW   D'249'          ; Count for 1ms delay 
005B   00F0           00204         MOVWF   Timer1          ; Load count
005C   0000           00205 LP      NOP                     ; Pad for 4 cycle loop
Message[305]: Using default destination of 1 (file).
005D   0BF0           00206         DECFSZ  Timer1          ; Count
005E   2???           00207         GOTO    LP              ; until Z
005F   0008           00208         RETURN                  ; and finish
                      00209 
                      00210 ;--------------------------------------------------------------
                      00211 ;       Generate data/command clock siganl E
                      00212 ;--------------------------------------------------------------
0060   1688           00213 PULSE_LCD_E_PIN BSF     PORTD, LCD_E_PIN                ; Set E high
0061   2???           00214         CALL    onems           ; Delay 1ms
0062   1288           00215         BCF     PORTD, LCD_E_PIN                ; Reset E low
0063   2???           00216         CALL    onems           ; Delay 1ms
0064   0008           00217         RETURN                  ; done
                      00218 
                      00219 
                      00220 ;--------------------------------------------------------------
                      00221 ;       Initialise the display
                      00222 ;--------------------------------------------------------------
0065                  00223 SETUP_LCD       
                      00224 
0065   1683 1303      00225         BANKSEL TRISD
Message[302]: Register in operand not in bank 0.  Ensure that bank bits are correct.
0067   0188           00226         CLRF TRISD ; Port D as output to LCD
                      00227 
0068   1283 1303      00228         BANKSEL PORTD
                      00229 
006A   0188           00230         CLRF    PORTD           ; and output it to display
                      00231 
006B   3040           00232         MOVLW   0x40            ; wait for display start
006C   2???           00233         CALL    DELAY_W
                      00234         
                      00235         
006D   3002           00236         MOVLW   0x02    ; Set 4-bit mode
006E   2???           00237         CALL    PulseWriteCmdToLCD ; send command
                      00238         
006F   3028           00239         MOVLW   0x28            ; Set 5 by 7 mode
0070   2???           00240         CALL    PulseWriteCmdToLCD ; send command
                      00241 
                      00242         ; TODO remove
                      00243         ; MOVLW 0x08            ; Switch off display
                      00244         ; CALL  PulseWriteCmdToLCD ; send command
                      00245 
0071   3001           00246         MOVLW   0x01            ; Code to clear display
0072   2???           00247         CALL    PulseWriteCmdToLCD ; send command
                      00248 
0073   300E           00249         MOVLW   0x0E            ; Display ON and cursor blinking
0074   2???           00250     CALL        PulseWriteCmdToLCD      ; send command
                      00251 
                      00252         ; MOVLW 0x06            ; Enable cursor auto inc  
MPASM 5.87                          MAIN.ASM   2-12-2023  18:41:06         PAGE  6


LOC  OBJECT CODE     LINE SOURCE TEXT
  VALUE

                      00253         ; CALL  PulseWriteCmdToLCD ; send command
                      00254 
0075   3080           00255         MOVLW   0x80            ; move cursor to first line, first column
0076   2???           00256         CALL    PulseWriteCmdToLCD ; send command
                      00257 
0077   300C           00258         MOVLW   0x0C            ; Turn on display  
0078   2???           00259         CALL    PulseWriteCmdToLCD ; send command
                      00260 
0079   0008           00261         RETURN                  ; Done
                      00262 
                      00263 
007A                  00264 PulseWriteCmdToLCD
007A   00F5           00265         MOVWF TEMP
Message[305]: Using default destination of 1 (file).
007B   0EF5           00266         SWAPF TEMP
007C   0875           00267         MOVF TEMP, W
007D   390F           00268         ANDLW 0x0f
007E   0088           00269         MOVWF PORTD
007F   1208           00270         BCF PORTD, LCD_RS_PIN ;Clearing the LCD_RS_PIN Register for command mode
0080   2???           00271         call PULSE_LCD_E_PIN
                      00272         ;call onems
Message[305]: Using default destination of 1 (file).
0081   0EF5           00273         SWAPF TEMP
0082   0875           00274         movf TEMP, W
0083   390F           00275         ANDLW   0x0f
0084   0088           00276         MOVWF PORTD
0085   1208           00277         BCF PORTD, LCD_RS_PIN ;Clearing the LCD_RS_PIN Register for command mode
0086   2???           00278         call PULSE_LCD_E_PIN
0087   0008           00279         RETURN
                      00280 
                      00281 ;--------------------------------------------------------------
                      00282 ;       Send a command byte in two nibbles from RB4 - RB7
                      00283 ;       Receives command in W, uses PulseE and Onems
                      00284 ;--------------------------------------------------------------
0088                  00285 PulseWriteCharToLCD
0088   00F5           00286     MOVWF TEMP
Message[305]: Using default destination of 1 (file).
0089   0EF5           00287     SWAPF TEMP
008A   0875           00288     MOVF TEMP, W
008B   390F           00289     ANDLW 0x0F ; Clear low nybble
008C   0088           00290     MOVWF PORTD
008D   1608           00291     BSF PORTD, LCD_RS_PIN ; set character mode on RS
008E   2???           00292     call PULSE_LCD_E_PIN ; clock LCD
008F   2???           00293     call onems
Message[305]: Using default destination of 1 (file).
0090   0EF5           00294     SWAPF TEMP
0091   0875           00295     MOVF TEMP, W
0092   390F           00296     ANDLW       0x0F ; Clear high nybble
0093   0088           00297     MOVWF PORTD
0094   1608           00298     BSF PORTD, LCD_RS_PIN 
0095   2???           00299     call PULSE_LCD_E_PIN 
0096   0008           00300     RETURN
                      00301 
MPASM 5.87                          MAIN.ASM   2-12-2023  18:41:06         PAGE  7


LOC  OBJECT CODE     LINE SOURCE TEXT
  VALUE

0097                  00302 WritePromptToLCD 
                      00303 
0097   3080           00304         MOVLW   0x80            ; move cursor to first line, first column
0098   2???           00305         CALL    PulseWriteCmdToLCD ; send command
                      00306 
0099   3045           00307         MOVLW 'E';
009A   2???           00308         CALL PulseWriteCharToLCD;
                      00309 
009B   306E           00310         MOVLW 'n';
009C   2???           00311         CALL PulseWriteCharToLCD;
                      00312 
009D   3074           00313         MOVLW 't';
009E   2???           00314         CALL PulseWriteCharToLCD;
                      00315 
009F   3065           00316         MOVLW 'e'; 
00A0   2???           00317         CALL PulseWriteCharToLCD;
                      00318 
00A1   3072           00319         MOVLW 'r';
00A2   2???           00320         CALL PulseWriteCharToLCD;
                      00321 
00A3   3020           00322         MOVLW ' ';
00A4   2???           00323         CALL PulseWriteCharToLCD;
                      00324 
00A5   3053           00325         MOVLW 'S';
00A6   2???           00326         CALL PulseWriteCharToLCD;
                      00327 
00A7   3074           00328         MOVLW 't';
00A8   2???           00329         CALL PulseWriteCharToLCD;
                      00330 
00A9   3072           00331         MOVLW 'r';
00AA   2???           00332         CALL PulseWriteCharToLCD;
                      00333 
00AB   3069           00334         MOVLW 'i';
00AC   2???           00335         CALL PulseWriteCharToLCD;
                      00336 
00AD   306E           00337         MOVLW 'n'; 
00AE   2???           00338         CALL PulseWriteCharToLCD;
                      00339 
00AF   3067           00340         MOVLW 'g';
00B0   2???           00341         CALL PulseWriteCharToLCD;
                      00342 
00B1   303A           00343         MOVLW ':';
00B2   2???           00344         CALL PulseWriteCharToLCD;
                      00345 
00B3   0008           00346         RETURN
                      00347 
                      00348 ;--------------------------------------------------------------End LCD CODE-----------------------------
                            --------
00B4                  00349 DONE
3731                  00350         END
MPASM 5.87                          MAIN.ASM   2-12-2023  18:41:06         PAGE  8


SYMBOL TABLE
  LABEL                             VALUE 

ACHAR                             00000041
ACKDT                             00000005
ACKEN                             00000004
ACKSTAT                           00000006
ADCON0                            0000001F
ADCON1                            0000009F
ADCS0                             00000006
ADCS1                             00000007
ADDEN                             00000003
ADFM                              00000007
ADIE                              00000006
ADIF                              00000006
ADON                              00000000
ADRESH                            0000001E
ADRESL                            0000009E
BCLIE                             00000003
BCLIF                             00000003
BF                                00000000
BRGH                              00000002
C                                 00000000
C1INV                             00000004
C1OUT                             00000006
C2INV                             00000005
C2OUT                             00000007
CCP1CON                           00000017
CCP1IE                            00000002
CCP1IF                            00000002
CCP1M0                            00000000
CCP1M1                            00000001
CCP1M2                            00000002
CCP1M3                            00000003
CCP1X                             00000005
CCP1Y                             00000004
CCP2CON                           0000001D
CCP2IE                            00000000
CCP2IF                            00000000
CCP2M0                            00000000
CCP2M1                            00000001
CCP2M2                            00000002
CCP2M3                            00000003
CCP2X                             00000005
CCP2Y                             00000004
CCPR1H                            00000016
CCPR1L                            00000015
CCPR2H                            0000001C
CCPR2L                            0000001B
CHS0                              00000003
CHS1                              00000004
CHS2                              00000005
CIS                               00000003
CKE                               00000006
CKP                               00000004
CM0                               00000000
MPASM 5.87                          MAIN.ASM   2-12-2023  18:41:06         PAGE  9


SYMBOL TABLE
  LABEL                             VALUE 

CM1                               00000001
CM2                               00000002
CMCON                             0000009C
CMIE                              00000006
CMIF                              00000006
CREN                              00000004
CSRC                              00000007
CSR_LOC                           0000007C
CVR0                              00000000
CVR1                              00000001
CVR2                              00000002
CVR3                              00000003
CVRCON                            0000009D
CVREN                             00000007
CVROE                             00000006
CVRR                              00000005
D                                 00000005
DATA_ADDRESS                      00000005
DC                                00000001
DELAY_W                           00000050
DONE                              000000B4
D_A                               00000005
EEADR                             0000010D
EEADRH                            0000010F
EECON1                            0000018C
EECON2                            0000018D
EEDATA                            0000010C
EEDATH                            0000010E
EEIE                              00000004
EEIF                              00000004
EEPGD                             00000007
F                                 00000001
FERR                              00000002
FSR                               00000004
GCEN                              00000007
GIE                               00000007
GO                                00000002
GO_DONE                           00000002
I2C_DATA                          00000005
I2C_READ                          00000002
I2C_START                         00000003
I2C_STOP                          00000004
IBF                               00000007
IBOV                              00000005
INDF                              00000000
INIT_DEBUG_PORT                   00000031
INTCON                            0000000B
INTE                              00000004
INTEDG                            00000006
INTF                              00000001
IRP                               00000007
ISR_FOR_BTN                       0000000F
ISR_FOR_TIMER                     0000000C
MPASM 5.87                          MAIN.ASM   2-12-2023  18:41:06         PAGE 10


SYMBOL TABLE
  LABEL                             VALUE 

LABEL_REACH                       00000042
LCD_CSR                           00000022
LCD_E_PIN                         00000005
LCD_RS_PIN                        00000004
LP                                0000005C
Location                          000000C0
NOT_A                             00000005
NOT_ADDRESS                       00000005
NOT_BO                            00000000
NOT_BOR                           00000000
NOT_DONE                          00000002
NOT_PD                            00000003
NOT_POR                           00000001
NOT_RBPU                          00000007
NOT_RC8                           00000006
NOT_T1SYNC                        00000002
NOT_TO                            00000004
NOT_TX8                           00000006
NOT_W                             00000002
NOT_WRITE                         00000002
OBF                               00000006
OERR                              00000001
OPTION_REG                        00000081
P                                 00000004
PCFG0                             00000000
PCFG1                             00000001
PCFG2                             00000002
PCFG3                             00000003
PCL                               00000002
PCLATH                            0000000A
PCON                              0000008E
PEIE                              00000006
PEN                               00000002
PIE1                              0000008C
PIE2                              0000008D
PIR1                              0000000C
PIR2                              0000000D
PORTA                             00000005
PORTB                             00000006
PORTC                             00000007
PORTD                             00000008
PORTE                             00000009
PR2                               00000092
PS0                               00000000
PS1                               00000001
PS2                               00000002
PSA                               00000003
PSPIE                             00000007
PSPIF                             00000007
PSPMODE                           00000004
PULSE_LCD_E_PIN                   00000060
Point                             00000073
PulseWriteCharToLCD               00000088
MPASM 5.87                          MAIN.ASM   2-12-2023  18:41:06         PAGE 11


SYMBOL TABLE
  LABEL                             VALUE 

PulseWriteCmdToLCD                0000007A
R                                 00000002
RBIE                              00000003
RBIF                              00000000
RC8_9                             00000006
RC9                               00000006
RCD8                              00000000
RCEN                              00000003
RCIE                              00000005
RCIF                              00000005
RCREG                             0000001A
RCSTA                             00000018
RD                                00000000
READ_WRITE                        00000002
RP0                               00000005
RP1                               00000006
RSEN                              00000001
RX9                               00000006
RX9D                              00000000
R_W                               00000002
S                                 00000003
SEN                               00000000
SETUP_INTERRUPTS                  00000029
SETUP_LCD                         00000065
SETUP_PORTS_DIGITAL               00000020
SMP                               00000007
SPBRG                             00000099
SPEN                              00000007
SREN                              00000005
SSPADD                            00000093
SSPBUF                            00000013
SSPCON                            00000014
SSPCON2                           00000091
SSPEN                             00000005
SSPIE                             00000003
SSPIF                             00000003
SSPM0                             00000000
SSPM1                             00000001
SSPM2                             00000002
SSPM3                             00000003
SSPOV                             00000006
SSPSTAT                           00000094
START_EXECUTION                   00000036
STATUS                            00000003
SYNC                              00000004
T0CS                              00000005
T0IE                              00000005
T0IF                              00000002
T0SE                              00000004
T1CKPS0                           00000004
T1CKPS1                           00000005
T1CON                             00000010
T1INSYNC                          00000002
MPASM 5.87                          MAIN.ASM   2-12-2023  18:41:06         PAGE 12


SYMBOL TABLE
  LABEL                             VALUE 

T1OSCEN                           00000003
T1SYNC                            00000002
T2CKPS0                           00000000
T2CKPS1                           00000001
T2CON                             00000012
TEMP                              00000075
TEMP2                             00000076
TMR0                              00000001
TMR0IE                            00000005
TMR0IF                            00000002
TMR1CS                            00000001
TMR1H                             0000000F
TMR1IE                            00000000
TMR1IF                            00000000
TMR1L                             0000000E
TMR1ON                            00000000
TMR2                              00000011
TMR2IE                            00000001
TMR2IF                            00000001
TMR2ON                            00000002
TOUTPS0                           00000003
TOUTPS1                           00000004
TOUTPS2                           00000005
TOUTPS3                           00000006
TRISA                             00000085
TRISB                             00000086
TRISC                             00000087
TRISD                             00000088
TRISE                             00000089
TRISE0                            00000000
TRISE1                            00000001
TRISE2                            00000002
TRMT                              00000001
TX8_9                             00000006
TX9                               00000006
TX9D                              00000000
TXD8                              00000000
TXEN                              00000005
TXIE                              00000004
TXIF                              00000004
TXREG                             00000019
TXSTA                             00000098
Timer1                            00000070
TimerX                            00000071
UA                                00000001
Var                               00000072
W                                 00000000
WCOL                              00000007
WHITE                             00000020
WR                                00000001
WREN                              00000002
WRERR                             00000003
WritePromptToLCD                  00000097
MPASM 5.87                          MAIN.ASM   2-12-2023  18:41:06         PAGE 13


SYMBOL TABLE
  LABEL                             VALUE 

Z                                 00000002
_BODEN_OFF                        00003FBF
_BODEN_ON                         00003FFF
_CPD_OFF                          00003FFF
_CPD_ON                           00003EFF
_CP_ALL                           00001FFF
_CP_OFF                           00003FFF
_DEBUG_OFF                        00003FFF
_DEBUG_ON                         000037FF
_HS_OSC                           00003FFE
_LP_OSC                           00003FFC
_LVP_OFF                          00003F7F
_LVP_ON                           00003FFF
_PWRTE_OFF                        00003FFF
_PWRTE_ON                         00003FF7
_RC_OSC                           00003FFF
_WDT_OFF                          00003FFB
_WDT_ON                           00003FFF
_WRT_1FOURTH                      00003BFF
_WRT_256                          00003DFF
_WRT_HALF                         000039FF
_WRT_OFF                          00003FFF
_XT_OSC                           00003FFD
__16F877A                         00000001
blinkDelay                        00000050
counter                           00000020
counterBlink                      00000021
currentCharReg                    00000023
loop_start                        00000051
onems                             0000005A

Errors   :     0
Warnings :     1 reported,     0 suppressed
Messages :    12 reported,     0 suppressed

